; Function Attrs: mustprogress uwtable
define void @_ZN6google8protobuf8internal14WireFormatLite11WriteSInt32EiiPNS0_2io17CodedOutputStreamE(i32 noundef %0, i32 noundef %1, ptr noundef %2) local_unnamed_addr #3 align 2 {
  %4 = shl i32 %0, 3
  %5 = getelementptr inbounds i8, ptr %2, i64 64
  %6 = load ptr, ptr %5, align 8
  %7 = load ptr, ptr %2, align 8
  %.not.i.i.i = icmp ugt ptr %7, %6
  br i1 %.not.i.i.i, label %_ZN6google8protobuf2io19EpsCopyOutputStream11EnsureSpaceEPh.exit.i.i, label %8

8:                                                ; preds = %3
  %9 = tail call noundef ptr @_ZN6google8protobuf2io19EpsCopyOutputStream19EnsureSpaceFallbackEPh(ptr noundef nonnull align 8 dereferenceable(59) %2, ptr noundef %6)
  br label %_ZN6google8protobuf2io19EpsCopyOutputStream11EnsureSpaceEPh.exit.i.i

_ZN6google8protobuf2io19EpsCopyOutputStream11EnsureSpaceEPh.exit.i.i: ; preds = %8, %3
  %.0.i.i.i = phi ptr [ %9, %8 ], [ %6, %3 ]
  %10 = icmp ult i32 %4, 128
  %11 = trunc i32 %4 to i8
  br i1 %10, label %12, label %14

12:                                               ; preds = %_ZN6google8protobuf2io19EpsCopyOutputStream11EnsureSpaceEPh.exit.i.i
  store i8 %11, ptr %.0.i.i.i, align 1
  %13 = getelementptr inbounds i8, ptr %.0.i.i.i, i64 1
  br label %_ZN6google8protobuf2io17CodedOutputStream8WriteTagEj.exit

14:                                               ; preds = %_ZN6google8protobuf2io19EpsCopyOutputStream11EnsureSpaceEPh.exit.i.i
  %15 = or i8 %11, -128
  store i8 %15, ptr %.0.i.i.i, align 1
  %16 = lshr i32 %4, 7
  %17 = icmp ult i32 %4, 16384
  br i1 %17, label %18, label %22

18:                                               ; preds = %14
  %19 = trunc nuw nsw i32 %16 to i8
  %20 = getelementptr inbounds i8, ptr %.0.i.i.i, i64 1
  store i8 %19, ptr %20, align 1
  %21 = getelementptr inbounds i8, ptr %.0.i.i.i, i64 2
  br label %_ZN6google8protobuf2io17CodedOutputStream8WriteTagEj.exit

22:                                               ; preds = %14
  %23 = getelementptr inbounds i8, ptr %.0.i.i.i, i64 1
  br label %24

24:                                               ; preds = %24, %22
  %.023.i.i.i = phi ptr [ %23, %22 ], [ %28, %24 ]
  %.022.i.i.i = phi i32 [ %16, %22 ], [ %27, %24 ]
  %25 = trunc i32 %.022.i.i.i to i8
  %26 = or i8 %25, -128
  store i8 %26, ptr %.023.i.i.i, align 1
  %27 = lshr i32 %.022.i.i.i, 7
  %28 = getelementptr inbounds i8, ptr %.023.i.i.i, i64 1
  %29 = icmp ugt i32 %.022.i.i.i, 16383
  br i1 %29, label %24, label %30, !llvm.loop !6

30:                                               ; preds = %24
  %31 = trunc nuw nsw i32 %27 to i8
  %32 = getelementptr inbounds i8, ptr %.023.i.i.i, i64 2
  store i8 %31, ptr %28, align 1
  br label %_ZN6google8protobuf2io17CodedOutputStream8WriteTagEj.exit

_ZN6google8protobuf2io17CodedOutputStream8WriteTagEj.exit: ; preds = %12, %18, %30
  %.0.i1.i.i = phi ptr [ %13, %12 ], [ %21, %18 ], [ %32, %30 ]
  store ptr %.0.i1.i.i, ptr %5, align 8
  %33 = shl i32 %1, 1
  %34 = ashr i32 %1, 31
  %35 = xor i32 %33, %34
  %36 = load ptr, ptr %2, align 8
  %.not.i.i = icmp ugt ptr %36, %.0.i1.i.i
  br i1 %.not.i.i, label %_ZN6google8protobuf2io19EpsCopyOutputStream11EnsureSpaceEPh.exit.i, label %37

37:                                               ; preds = %_ZN6google8protobuf2io17CodedOutputStream8WriteTagEj.exit
  %38 = tail call noundef ptr @_ZN6google8protobuf2io19EpsCopyOutputStream19EnsureSpaceFallbackEPh(ptr noundef nonnull align 8 dereferenceable(59) %2, ptr noundef nonnull %.0.i1.i.i)
  br label %_ZN6google8protobuf2io19EpsCopyOutputStream11EnsureSpaceEPh.exit.i

_ZN6google8protobuf2io19EpsCopyOutputStream11EnsureSpaceEPh.exit.i: ; preds = %37, %_ZN6google8protobuf2io17CodedOutputStream8WriteTagEj.exit
  %.0.i.i = phi ptr [ %38, %37 ], [ %.0.i1.i.i, %_ZN6google8protobuf2io17CodedOutputStream8WriteTagEj.exit ]
  %39 = icmp ult i32 %35, 128
  %40 = trunc i32 %35 to i8
  br i1 %39, label %41, label %43

41:                                               ; preds = %_ZN6google8protobuf2io19EpsCopyOutputStream11EnsureSpaceEPh.exit.i
  store i8 %40, ptr %.0.i.i, align 1
  %42 = getelementptr inbounds i8, ptr %.0.i.i, i64 1
  br label %_ZN6google8protobuf2io17CodedOutputStream13WriteVarint32Ej.exit

43:                                               ; preds = %_ZN6google8protobuf2io19EpsCopyOutputStream11EnsureSpaceEPh.exit.i
  %44 = or i8 %40, -128
  store i8 %44, ptr %.0.i.i, align 1
  %45 = lshr i32 %35, 7
  %46 = icmp ult i32 %35, 16384
  br i1 %46, label %47, label %51

47:                                               ; preds = %43
  %48 = trunc nuw nsw i32 %45 to i8
  %49 = getelementptr inbounds i8, ptr %.0.i.i, i64 1
  store i8 %48, ptr %49, align 1
  %50 = getelementptr inbounds i8, ptr %.0.i.i, i64 2
  br label %_ZN6google8protobuf2io17CodedOutputStream13WriteVarint32Ej.exit

51:                                               ; preds = %43
  %52 = getelementptr inbounds i8, ptr %.0.i.i, i64 1
  br label %53

53:                                               ; preds = %53, %51
  %.023.i.i = phi ptr [ %52, %51 ], [ %57, %53 ]
  %.022.i.i = phi i32 [ %45, %51 ], [ %56, %53 ]
  %54 = trunc i32 %.022.i.i to i8
  %55 = or i8 %54, -128
  store i8 %55, ptr %.023.i.i, align 1
  %56 = lshr i32 %.022.i.i, 7
  %57 = getelementptr inbounds i8, ptr %.023.i.i, i64 1
  %58 = icmp ugt i32 %.022.i.i, 16383
  br i1 %58, label %53, label %59, !llvm.loop !6

59:                                               ; preds = %53
  %60 = trunc nuw nsw i32 %56 to i8
  %61 = getelementptr inbounds i8, ptr %.023.i.i, i64 2
  store i8 %60, ptr %57, align 1
  br label %_ZN6google8protobuf2io17CodedOutputStream13WriteVarint32Ej.exit

_ZN6google8protobuf2io17CodedOutputStream13WriteVarint32Ej.exit: ; preds = %41, %47, %59
  %.0.i1.i = phi ptr [ %42, %41 ], [ %50, %47 ], [ %61, %59 ]
  store ptr %.0.i1.i, ptr %5, align 8
  ret void
}